; Function Attrs: mustprogress uwtable
define noundef i32 @_ZN6icu_7735SimpleFilteredSentenceBreakIterator4nextEi(ptr noundef nonnull align 8 captures(none) dereferenceable(56) %0, i32 noundef %1) unnamed_addr #2 align 2 {
  %3 = getelementptr inbounds nuw i8, ptr %0, i64 40
  %4 = load ptr, ptr %3, align 8, !tbaa !23
  %5 = load ptr, ptr %4, align 8, !tbaa !3
  %6 = getelementptr inbounds nuw i8, ptr %5, i64 144
  %7 = load ptr, ptr %6, align 8
  %8 = tail call noundef i32 %7(ptr noundef nonnull align 8 dereferenceable(32) %4, i32 noundef %1)
  %9 = tail call noundef i32 @_ZN6icu_7735SimpleFilteredSentenceBreakIterator12internalNextEi(ptr noundef nonnull align 8 dereferenceable(56) %0, i32 noundef %8)
  ret i32 %9
}